target datalayout = "e-m:e-p270:32:32-p271:32:32-p272:64:64-i64:64-i128:128-f80:128-n8:16:32:64-S128"
target triple = "x86_64-pc-linux-gnu"

%struct.quic_port_st = type { ptr, %struct.anon, ptr, ptr, ptr, ptr, ptr, ptr, %struct.ossl_list_st_ch, %struct.ossl_list_st_incoming_ch, ptr, ptr, ptr, ptr, i8, i8, i16, ptr }
%struct.anon = type { ptr, ptr }
%struct.ossl_list_st_ch = type { ptr, ptr, i64 }
%struct.ossl_list_st_incoming_ch = type { ptr, ptr, i64 }
%struct.quic_engine_st = type { ptr, ptr, ptr, ptr, ptr, %struct.quic_reactor_st, %struct.ossl_list_st_port, i8 }
%struct.quic_reactor_st = type { %struct.bio_poll_descriptor_st, %struct.bio_poll_descriptor_st, %struct.OSSL_TIME, ptr, ptr, ptr, %struct.rio_notifier_st, ptr, i64, i8 }
%struct.bio_poll_descriptor_st = type { i32, %union.anon.6 }
%union.anon.6 = type { ptr }
%struct.OSSL_TIME = type { i64 }
%struct.rio_notifier_st = type { i32, i32 }
%struct.ossl_list_st_port = type { ptr, ptr, i64 }
%struct.quic_channel_st = type { ptr, %struct.anon.0, %struct.anon.1, ptr, ptr, ptr, ptr, ptr, ptr, ptr, i64, %union.bio_addr_st, ptr, ptr, ptr, %struct.quic_txfc_st, %struct.quic_rxfc_st, [3 x %struct.quic_rxfc_st], %struct.quic_rxfc_st, %struct.quic_rxfc_st, %struct.quic_stream_map_st, %struct.ossl_statm_st, ptr, ptr, ptr, ptr, ptr, ptr, ptr, ptr, [3 x ptr], [3 x ptr], %struct.quic_conn_id_st, %struct.quic_conn_id_st, %struct.quic_conn_id_st, %struct.quic_conn_id_st, %struct.quic_conn_id_st, %struct.quic_conn_id_st, i64, i64, i64, i64, i64, i64, i64, i64, i64, i64, i8, i16, ptr, i64, i64, i64, i64, i64, i64, i64, i64, i64, i64, i64, i64, i64, %struct.quic_terminate_cause_st, %struct.OSSL_TIME, %struct.OSSL_TIME, %struct.OSSL_TIME, %struct.OSSL_TIME, %struct.OSSL_TIME, i64, i64, i64, ptr, ptr, i64, ptr }
%struct.anon.0 = type { ptr, ptr }
%struct.anon.1 = type { ptr, ptr }
%union.bio_addr_st = type { %struct.sockaddr_in6, [84 x i8] }
%struct.sockaddr_in6 = type { i16, i16, i32, %struct.in6_addr, i32 }
%struct.in6_addr = type { %union.anon }
%union.anon = type { [4 x i32] }
%struct.quic_txfc_st = type { ptr, i64, i64, i8 }
%struct.quic_rxfc_st = type { i64, i64, i64, i64, i64, i64, i64, %struct.OSSL_TIME, ptr, ptr, ptr, i8, i8, i8, i8 }
%struct.quic_stream_map_st = type { ptr, %struct.quic_stream_list_node_st, %struct.quic_stream_list_node_st, %struct.quic_stream_list_node_st, i64, i64, i64, i64, i64, ptr, ptr, ptr, ptr, ptr, i32 }
%struct.quic_stream_list_node_st = type { ptr, ptr }
%struct.ossl_statm_st = type { %struct.OSSL_TIME, %struct.OSSL_TIME, %struct.OSSL_TIME, %struct.OSSL_TIME, i8 }
%struct.quic_conn_id_st = type { i8, [20 x i8] }
%struct.quic_terminate_cause_st = type { i64, i64, ptr, i64, i8 }

@.str = private unnamed_addr constant [32 x i8] c"../openssl/ssl/quic/quic_port.c\00", align 1
@__func__.validate_poll_descriptor = private unnamed_addr constant [25 x i8] c"validate_poll_descriptor\00", align 1

; Function Attrs: nounwind uwtable
define internal i32 @validate_poll_descriptor(ptr noundef %0) #0 {
  %2 = alloca i32, align 4
  %3 = alloca ptr, align 8
  store ptr %0, ptr %3, align 8, !tbaa !256
  %4 = load ptr, ptr %3, align 8, !tbaa !256
  %5 = getelementptr inbounds nuw %struct.bio_poll_descriptor_st, ptr %4, i32 0, i32 0
  %6 = load i32, ptr %5, align 8, !tbaa !66
  %7 = icmp eq i32 %6, 1
  br i1 %7, label %8, label %14

8:                                                ; preds = %1
  %9 = load ptr, ptr %3, align 8, !tbaa !256
  %10 = getelementptr inbounds nuw %struct.bio_poll_descriptor_st, ptr %9, i32 0, i32 1
  %11 = load i32, ptr %10, align 8, !tbaa !199
  %12 = icmp slt i32 %11, 0
  br i1 %12, label %13, label %14

13:                                               ; preds = %8
  call void @ERR_new()
  call void @ERR_set_debug(ptr noundef @.str, i32 noundef 282, ptr noundef @__func__.validate_poll_descriptor)
  call void (i32, i32, ptr, ...) @ERR_set_error(i32 noundef 20, i32 noundef 524550, ptr noundef null)
  store i32 0, ptr %2, align 4
  br label %15

14:                                               ; preds = %8, %1
  store i32 1, ptr %2, align 4
  br label %15

15:                                               ; preds = %14, %13
  %16 = load i32, ptr %2, align 4
  ret i32 %16
}

; Function Attrs: nounwind uwtable
define internal void @port_update_addressing_mode(ptr noundef %0) #0 {
  %2 = alloca ptr, align 8
  %3 = alloca i64, align 8
  %4 = alloca i64, align 8
  store ptr %0, ptr %2, align 8, !tbaa !8
  call void @llvm.lifetime.start.p0(i64 8, ptr %3) #8
  store i64 0, ptr %3, align 8, !tbaa !36
  call void @llvm.lifetime.start.p0(i64 8, ptr %4) #8
  store i64 0, ptr %4, align 8, !tbaa !36
  %5 = load ptr, ptr %2, align 8, !tbaa !8
  %6 = getelementptr inbounds nuw %struct.quic_port_st, ptr %5, i32 0, i32 5
  %7 = load ptr, ptr %6, align 8, !tbaa !63
  %8 = icmp ne ptr %7, null
  br i1 %8, label %9, label %16

9:                                                ; preds = %1
  %10 = load ptr, ptr %2, align 8, !tbaa !8
  %11 = getelementptr inbounds nuw %struct.quic_port_st, ptr %10, i32 0, i32 5
  %12 = load ptr, ptr %11, align 8, !tbaa !63
  %13 = call i64 @BIO_ctrl(ptr noundef %12, i32 noundef 85, i64 noundef 0, ptr noundef null)
  %14 = trunc i64 %13 to i32
  %15 = zext i32 %14 to i64
  store i64 %15, ptr %3, align 8, !tbaa !36
  br label %16

16:                                               ; preds = %9, %1
  %17 = load ptr, ptr %2, align 8, !tbaa !8
  %18 = getelementptr inbounds nuw %struct.quic_port_st, ptr %17, i32 0, i32 6
  %19 = load ptr, ptr %18, align 8, !tbaa !64
  %20 = icmp ne ptr %19, null
  br i1 %20, label %21, label %28

21:                                               ; preds = %16
  %22 = load ptr, ptr %2, align 8, !tbaa !8
  %23 = getelementptr inbounds nuw %struct.quic_port_st, ptr %22, i32 0, i32 6
  %24 = load ptr, ptr %23, align 8, !tbaa !64
  %25 = call i64 @BIO_ctrl(ptr noundef %24, i32 noundef 85, i64 noundef 0, ptr noundef null)
  %26 = trunc i64 %25 to i32
  %27 = zext i32 %26 to i64
  store i64 %27, ptr %4, align 8, !tbaa !36
  br label %28

28:                                               ; preds = %21, %16
  %29 = load i64, ptr %3, align 8, !tbaa !36
  %30 = and i64 %29, 4
  %31 = icmp ne i64 %30, 0
  %32 = zext i1 %31 to i32
  %33 = load ptr, ptr %2, align 8, !tbaa !8
  %34 = getelementptr inbounds nuw %struct.quic_port_st, ptr %33, i32 0, i32 16
  %35 = trunc i32 %32 to i16
  %36 = load i16, ptr %34, align 2
  %37 = and i16 %35, 1
  %38 = shl i16 %37, 7
  %39 = and i16 %36, -129
  %40 = or i16 %39, %38
  store i16 %40, ptr %34, align 2
  %41 = load i64, ptr %4, align 8, !tbaa !36
  %42 = and i64 %41, 2
  %43 = icmp ne i64 %42, 0
  %44 = zext i1 %43 to i32
  %45 = load ptr, ptr %2, align 8, !tbaa !8
  %46 = getelementptr inbounds nuw %struct.quic_port_st, ptr %45, i32 0, i32 16
  %47 = trunc i32 %44 to i16
  %48 = load i16, ptr %46, align 2
  %49 = and i16 %47, 1
  %50 = shl i16 %49, 6
  %51 = and i16 %48, -65
  %52 = or i16 %51, %50
  store i16 %52, ptr %46, align 2
  %53 = load ptr, ptr %2, align 8, !tbaa !8
  %54 = getelementptr inbounds nuw %struct.quic_port_st, ptr %53, i32 0, i32 16
  %55 = load i16, ptr %54, align 2
  %56 = and i16 %55, -257
  %57 = or i16 %56, 256
  store i16 %57, ptr %54, align 2
  call void @llvm.lifetime.end.p0(i64 8, ptr %4) #8
  call void @llvm.lifetime.end.p0(i64 8, ptr %3) #8
  ret void
}

; Function Attrs: inlinehint nounwind uwtable
define internal ptr @ossl_list_ch_next(ptr noundef %0) #3 {
  %2 = alloca ptr, align 8
  store ptr %0, ptr %2, align 8, !tbaa !67
  %3 = load ptr, ptr %2, align 8, !tbaa !67
  %4 = getelementptr inbounds nuw %struct.quic_channel_st, ptr %3, i32 0, i32 1
  %5 = getelementptr inbounds nuw %struct.anon.0, ptr %4, i32 0, i32 0
  %6 = load ptr, ptr %5, align 8, !tbaa !102
  ret ptr %6
}

; Function Attrs: inlinehint nounwind uwtable
define internal ptr @ossl_list_ch_head(ptr noundef %0) #3 {
  %2 = alloca ptr, align 8
  store ptr %0, ptr %2, align 8, !tbaa !99
  %3 = load ptr, ptr %2, align 8, !tbaa !99
  %4 = getelementptr inbounds nuw %struct.ossl_list_st_ch, ptr %3, i32 0, i32 0
  %5 = load ptr, ptr %4, align 8, !tbaa !101
  ret ptr %5
}

; Function Attrs: nounwind uwtable
define internal i32 @port_update_poll_desc(ptr noundef %0, ptr noundef %1, i32 noundef %2) #0 {
  %4 = alloca i32, align 4
  %5 = alloca ptr, align 8
  %6 = alloca ptr, align 8
  %7 = alloca i32, align 4
  %8 = alloca %struct.bio_poll_descriptor_st, align 8
  %9 = alloca i32, align 4
  store ptr %0, ptr %5, align 8, !tbaa !8
  store ptr %1, ptr %6, align 8, !tbaa !65
  store i32 %2, ptr %7, align 4, !tbaa !41
  call void @llvm.lifetime.start.p0(i64 16, ptr %8) #8
  call void @llvm.memset.p0.i64(ptr align 8 %8, i8 0, i64 16, i1 false)
  %10 = load ptr, ptr %6, align 8, !tbaa !65
  %11 = icmp eq ptr %10, null
  br i1 %11, label %26, label %12

12:                                               ; preds = %3
  %13 = load i32, ptr %7, align 4, !tbaa !41
  %14 = icmp ne i32 %13, 0
  br i1 %14, label %19, label %15

15:                                               ; preds = %12
  %16 = load ptr, ptr %6, align 8, !tbaa !65
  %17 = call i32 @BIO_get_rpoll_descriptor(ptr noundef %16, ptr noundef %8)
  %18 = icmp ne i32 %17, 0
  br i1 %18, label %19, label %26

19:                                               ; preds = %15, %12
  %20 = load i32, ptr %7, align 4, !tbaa !41
  %21 = icmp ne i32 %20, 0
  br i1 %21, label %22, label %28

22:                                               ; preds = %19
  %23 = load ptr, ptr %6, align 8, !tbaa !65
  %24 = call i32 @BIO_get_wpoll_descriptor(ptr noundef %23, ptr noundef %8)
  %25 = icmp ne i32 %24, 0
  br i1 %25, label %28, label %26

26:                                               ; preds = %22, %15, %3
  %27 = getelementptr inbounds nuw %struct.bio_poll_descriptor_st, ptr %8, i32 0, i32 0
  store i32 0, ptr %27, align 8, !tbaa !66
  br label %28

28:                                               ; preds = %26, %22, %19
  %29 = call i32 @validate_poll_descriptor(ptr noundef %8)
  %30 = icmp ne i32 %29, 0
  br i1 %30, label %32, label %31

31:                                               ; preds = %28
  store i32 0, ptr %4, align 4
  store i32 1, ptr %9, align 4
  br label %46

32:                                               ; preds = %28
  %33 = load i32, ptr %7, align 4, !tbaa !41
  %34 = icmp ne i32 %33, 0
  br i1 %34, label %35, label %40

35:                                               ; preds = %32
  %36 = load ptr, ptr %5, align 8, !tbaa !8
  %37 = getelementptr inbounds nuw %struct.quic_port_st, ptr %36, i32 0, i32 0
  %38 = load ptr, ptr %37, align 8, !tbaa !15
  %39 = getelementptr inbounds nuw %struct.quic_engine_st, ptr %38, i32 0, i32 5
  call void @ossl_quic_reactor_set_poll_w(ptr noundef %39, ptr noundef %8)
  br label %45

40:                                               ; preds = %32
  %41 = load ptr, ptr %5, align 8, !tbaa !8
  %42 = getelementptr inbounds nuw %struct.quic_port_st, ptr %41, i32 0, i32 0
  %43 = load ptr, ptr %42, align 8, !tbaa !15
  %44 = getelementptr inbounds nuw %struct.quic_engine_st, ptr %43, i32 0, i32 5
  call void @ossl_quic_reactor_set_poll_r(ptr noundef %44, ptr noundef %8)
  br label %45

45:                                               ; preds = %40, %35
  store i32 1, ptr %4, align 4
  store i32 1, ptr %9, align 4
  br label %46

46:                                               ; preds = %45, %31
  call void @llvm.lifetime.end.p0(i64 16, ptr %8) #8
  %47 = load i32, ptr %4, align 4
  ret i32 %47
}

; Function Attrs: nounwind uwtable
define i32 @ossl_quic_port_set_net_wbio(ptr noundef %0, ptr noundef %1) #0 {
  %3 = alloca i32, align 4
  %4 = alloca ptr, align 8
  %5 = alloca ptr, align 8
  %6 = alloca ptr, align 8
  %7 = alloca i32, align 4
  store ptr %0, ptr %4, align 8, !tbaa !8
  store ptr %1, ptr %5, align 8, !tbaa !65
  call void @llvm.lifetime.start.p0(i64 8, ptr %6) #8
  %8 = load ptr, ptr %4, align 8, !tbaa !8
  %9 = getelementptr inbounds nuw %struct.quic_port_st, ptr %8, i32 0, i32 6
  %10 = load ptr, ptr %9, align 8, !tbaa !64
  %11 = load ptr, ptr %5, align 8, !tbaa !65
  %12 = icmp eq ptr %10, %11
  br i1 %12, label %13, label %14

13:                                               ; preds = %2
  store i32 1, ptr %3, align 4
  store i32 1, ptr %7, align 4
  br label %40

14:                                               ; preds = %2
  %15 = load ptr, ptr %4, align 8, !tbaa !8
  %16 = load ptr, ptr %5, align 8, !tbaa !65
  %17 = call i32 @port_update_poll_desc(ptr noundef %15, ptr noundef %16, i32 noundef 1)
  %18 = icmp ne i32 %17, 0
  br i1 %18, label %20, label %19

19:                                               ; preds = %14
  store i32 0, ptr %3, align 4
  store i32 1, ptr %7, align 4
  br label %40

20:                                               ; preds = %14
  %21 = load ptr, ptr %4, align 8, !tbaa !8
  %22 = getelementptr inbounds nuw %struct.quic_port_st, ptr %21, i32 0, i32 8
  %23 = call ptr @ossl_list_ch_head(ptr noundef %22)
  store ptr %23, ptr %6, align 8, !tbaa !67
  br label %24

24:                                               ; preds = %32, %20
  %25 = load ptr, ptr %6, align 8, !tbaa !67
  %26 = icmp ne ptr %25, null
  br i1 %26, label %27, label %35

27:                                               ; preds = %24
  %28 = load ptr, ptr %6, align 8, !tbaa !67
  %29 = getelementptr inbounds nuw %struct.quic_channel_st, ptr %28, i32 0, i32 25
  %30 = load ptr, ptr %29, align 8, !tbaa !68
  %31 = load ptr, ptr %5, align 8, !tbaa !65
  call void @ossl_qtx_set_bio(ptr noundef %30, ptr noundef %31)
  br label %32

32:                                               ; preds = %27
  %33 = load ptr, ptr %6, align 8, !tbaa !67
  %34 = call ptr @ossl_list_ch_next(ptr noundef %33)
  store ptr %34, ptr %6, align 8, !tbaa !67
  br label %24, !llvm.loop !97

35:                                               ; preds = %24
  %36 = load ptr, ptr %5, align 8, !tbaa !65
  %37 = load ptr, ptr %4, align 8, !tbaa !8
  %38 = getelementptr inbounds nuw %struct.quic_port_st, ptr %37, i32 0, i32 6
  store ptr %36, ptr %38, align 8, !tbaa !64
  %39 = load ptr, ptr %4, align 8, !tbaa !8
  call void @port_update_addressing_mode(ptr noundef %39)
  store i32 1, ptr %3, align 4
  store i32 1, ptr %7, align 4
  br label %40

40:                                               ; preds = %35, %19, %13
  call void @llvm.lifetime.end.p0(i64 8, ptr %6) #8
  %41 = load i32, ptr %3, align 4
  ret i32 %41
}