; Function Attrs: nounwind uwtable
define range(i32 0, 2) i32 @ossl_quic_port_set_net_wbio(ptr noundef captures(none) %0, ptr noundef %1) local_unnamed_addr #0 {
  %3 = alloca %struct.bio_poll_descriptor_st, align 8
  %4 = getelementptr inbounds nuw i8, ptr %0, i64 56
  %5 = load ptr, ptr %4, align 8, !tbaa !59
  %6 = icmp eq ptr %5, %1
  br i1 %6, label %41, label %7

7:                                                ; preds = %2
  call void @llvm.lifetime.start.p0(i64 16, ptr nonnull %3) #11
  call void @llvm.memset.p0.i64(ptr noundef nonnull align 8 dereferenceable(16) %3, i8 0, i64 16, i1 false)
  %8 = icmp eq ptr %1, null
  br i1 %8, label %14, label %9

9:                                                ; preds = %7
  %10 = call i32 @BIO_get_wpoll_descriptor(ptr noundef nonnull %1, ptr noundef nonnull %3) #11
  %.not10.i = icmp eq i32 %10, 0
  br i1 %.not10.i, label %validate_poll_descriptor.exit.thread31.i, label %.thread.i

validate_poll_descriptor.exit.thread31.i:         ; preds = %9
  store i32 0, ptr %3, align 8, !tbaa !60
  br label %14

.thread.i:                                        ; preds = %9
  %.val16.i = load i32, ptr %3, align 8, !tbaa !60
  %11 = getelementptr inbounds nuw i8, ptr %3, i64 8
  %.val1317.i = load i32, ptr %11, align 8
  %12 = icmp eq i32 %.val16.i, 1
  %13 = icmp slt i32 %.val1317.i, 0
  %or.cond.i18.i = select i1 %12, i1 %13, i1 false
  br i1 %or.cond.i18.i, label %port_update_poll_desc.exit.thread, label %14

port_update_poll_desc.exit.thread:                ; preds = %.thread.i
  call void @ERR_new() #11
  call void @ERR_set_debug(ptr noundef nonnull @.str, i32 noundef 282, ptr noundef nonnull @__func__.validate_poll_descriptor) #11
  call void (i32, i32, ptr, ...) @ERR_set_error(i32 noundef 20, i32 noundef 524550, ptr noundef null) #11
  call void @llvm.lifetime.end.p0(i64 16, ptr nonnull %3) #11
  br label %41

14:                                               ; preds = %7, %.thread.i, %validate_poll_descriptor.exit.thread31.i
  %15 = load ptr, ptr %0, align 8, !tbaa !11
  %16 = getelementptr inbounds nuw i8, ptr %15, i64 40
  call void @ossl_quic_reactor_set_poll_w(ptr noundef nonnull %16, ptr noundef nonnull %3) #11
  call void @llvm.lifetime.end.p0(i64 16, ptr nonnull %3) #11
  %17 = getelementptr inbounds nuw i8, ptr %0, i64 72
  %.018 = load ptr, ptr %17, align 8, !tbaa !61
  %.not1419 = icmp eq ptr %.018, null
  br i1 %.not1419, label %._crit_edge, label %.lr.ph

.lr.ph:                                           ; preds = %14, %.lr.ph
  %.020 = phi ptr [ %.0, %.lr.ph ], [ %.018, %14 ]
  %18 = getelementptr inbounds nuw i8, ptr %.020, i64 1056
  %19 = load ptr, ptr %18, align 8, !tbaa !62
  call void @ossl_qtx_set_bio(ptr noundef %19, ptr noundef %1) #11
  %20 = getelementptr i8, ptr %.020, i64 8
  %.0 = load ptr, ptr %20, align 8, !tbaa !61
  %.not14 = icmp eq ptr %.0, null
  br i1 %.not14, label %._crit_edge, label %.lr.ph, !llvm.loop !91

._crit_edge:                                      ; preds = %.lr.ph, %14
  store ptr %1, ptr %4, align 8, !tbaa !59
  %21 = getelementptr inbounds nuw i8, ptr %0, i64 48
  %22 = load ptr, ptr %21, align 8, !tbaa !58
  %.not.i = icmp eq ptr %22, null
  br i1 %.not.i, label %29, label %23

23:                                               ; preds = %._crit_edge
  %24 = call i64 @BIO_ctrl(ptr noundef nonnull %22, i32 noundef 85, i64 noundef 0, ptr noundef null) #11
  %25 = trunc i64 %24 to i16
  %26 = shl i16 %25, 5
  %27 = and i16 %26, 128
  %28 = or disjoint i16 %27, 256
  %.pr = load ptr, ptr %4, align 8, !tbaa !59
  br label %29

29:                                               ; preds = %23, %._crit_edge
  %30 = phi ptr [ %.pr, %23 ], [ %1, %._crit_edge ]
  %.08.i = phi i16 [ %28, %23 ], [ 256, %._crit_edge ]
  %.not11.i = icmp eq ptr %30, null
  br i1 %.not11.i, label %port_update_addressing_mode.exit, label %31

31:                                               ; preds = %29
  %32 = call i64 @BIO_ctrl(ptr noundef nonnull %30, i32 noundef 85, i64 noundef 0, ptr noundef null) #11
  %33 = trunc i64 %32 to i16
  %34 = shl i16 %33, 5
  %35 = and i16 %34, 64
  br label %port_update_addressing_mode.exit

port_update_addressing_mode.exit:                 ; preds = %29, %31
  %.0.i15 = phi i16 [ %35, %31 ], [ 0, %29 ]
  %36 = getelementptr inbounds nuw i8, ptr %0, i64 154
  %37 = load i16, ptr %36, align 2
  %38 = and i16 %37, -449
  %39 = or i16 %.0.i15, %.08.i
  %40 = or i16 %39, %38
  store i16 %40, ptr %36, align 2
  br label %41

41:                                               ; preds = %port_update_poll_desc.exit.thread, %2, %port_update_addressing_mode.exit
  %.012 = phi i32 [ 1, %port_update_addressing_mode.exit ], [ 1, %2 ], [ 0, %port_update_poll_desc.exit.thread ]
  ret i32 %.012
}